; Function Attrs: mustprogress nounwind uwtable
define void @_ZN7testing11ExpectationD2Ev(ptr noundef nonnull readonly align 8 dereferenceable(16) %this) unnamed_addr #7 align 2 personality ptr @__gxx_personality_v0 {
entry:
  %link_.i.i = getelementptr inbounds i8, ptr %this, i64 8
  invoke void @_ZN7testing8internal9MutexBase4LockEv(ptr noundef nonnull align 8 dereferenceable(56) @_ZN7testing8internal18g_linked_ptr_mutexE)
          to label %.noexc.i unwind label %terminate.lpad.i

.noexc.i:                                         ; preds = %entry
  %0 = load ptr, ptr %link_.i.i, align 8
  %cmp.i.i.i = icmp eq ptr %0, %link_.i.i
  br i1 %cmp.i.i.i, label %cleanup.i.i.i, label %while.cond.i.i.i

while.cond.i.i.i:                                 ; preds = %.noexc.i, %while.cond.i.i.i
  %p.0.i.i.i = phi ptr [ %1, %while.cond.i.i.i ], [ %0, %.noexc.i ]
  %1 = load ptr, ptr %p.0.i.i.i, align 8
  %cmp4.not.i.i.i = icmp eq ptr %1, %link_.i.i
  br i1 %cmp4.not.i.i.i, label %while.end.i.i.i, label %while.cond.i.i.i, !llvm.loop !16

while.end.i.i.i:                                  ; preds = %while.cond.i.i.i
  store ptr %0, ptr %p.0.i.i.i, align 8
  br label %cleanup.i.i.i

cleanup.i.i.i:                                    ; preds = %while.end.i.i.i, %.noexc.i
  invoke void @_ZN7testing8internal9MutexBase6UnlockEv(ptr noundef nonnull align 8 dereferenceable(56) @_ZN7testing8internal18g_linked_ptr_mutexE)
          to label %_ZN7testing8internal19linked_ptr_internal6departEv.exit.i.i unwind label %terminate.lpad.i.i.i.i

terminate.lpad.i.i.i.i:                           ; preds = %cleanup.i.i.i
  %2 = landingpad { ptr, i32 }
          catch ptr null
  %3 = extractvalue { ptr, i32 } %2, 0
  tail call void @__clang_call_terminate(ptr %3) #30
  unreachable

_ZN7testing8internal19linked_ptr_internal6departEv.exit.i.i: ; preds = %cleanup.i.i.i
  br i1 %cmp.i.i.i, label %if.then.i.i, label %_ZN7testing8internal10linked_ptrINS0_15ExpectationBaseEED2Ev.exit

if.then.i.i:                                      ; preds = %_ZN7testing8internal19linked_ptr_internal6departEv.exit.i.i
  %4 = load ptr, ptr %this, align 8
  %isnull.i.i = icmp eq ptr %4, null
  br i1 %isnull.i.i, label %_ZN7testing8internal10linked_ptrINS0_15ExpectationBaseEED2Ev.exit, label %delete.notnull.i.i

delete.notnull.i.i:                               ; preds = %if.then.i.i
  %vtable.i.i = load ptr, ptr %4, align 8
  %vfn.i.i = getelementptr inbounds i8, ptr %vtable.i.i, i64 8
  %5 = load ptr, ptr %vfn.i.i, align 8
  tail call void %5(ptr noundef nonnull align 8 dereferenceable(232) %4) #26
  br label %_ZN7testing8internal10linked_ptrINS0_15ExpectationBaseEED2Ev.exit

terminate.lpad.i:                                 ; preds = %entry
  %6 = landingpad { ptr, i32 }
          catch ptr null
  %7 = extractvalue { ptr, i32 } %6, 0
  tail call void @__clang_call_terminate(ptr %7) #30
  unreachable

_ZN7testing8internal10linked_ptrINS0_15ExpectationBaseEED2Ev.exit: ; preds = %_ZN7testing8internal19linked_ptr_internal6departEv.exit.i.i, %if.then.i.i, %delete.notnull.i.i
  ret void
}